; ModuleID = '58/1080.c'
source_filename = "58/1080.c"
target datalayout = "e-m:e-p270:32:32-p271:32:32-p272:64:64-i64:64-f80:128-n8:16:32:64-S128"
target triple = "x86_64-pc-linux-gnu"

@.str = private unnamed_addr constant [3 x i8] c"1\0A\00", align 1
@.str.1 = private unnamed_addr constant [3 x i8] c"0\0A\00", align 1

; Function Attrs: noinline nounwind uwtable
define dso_local i32 @main() #0 {
  %1 = alloca i32, align 4
  %2 = alloca i32, align 4
  %3 = alloca [1 x i8], align 1
  %4 = alloca i32, align 4
  %5 = alloca i32, align 4
  %6 = alloca [2 x [100000 x i8]], align 16
  %7 = alloca i32, align 4
  store i32 0, i32* %1, align 4
  %8 = getelementptr inbounds [1 x i8], [1 x i8]* %3, i64 0, i64 0
  %9 = call i32 (i8*, ...) bitcast (i32 (...)* @gets to i32 (i8*, ...)*)(i8* %8)
  %10 = getelementptr inbounds [1 x i8], [1 x i8]* %3, i64 0, i64 0
  %11 = call i32 @atoi(i8* %10) #3
  store i32 %11, i32* %2, align 4
  store i32 0, i32* %4, align 4
  br label %12

12:                                               ; preds = %133, %0
  %13 = load i32, i32* %4, align 4
  %14 = load i32, i32* %2, align 4
  %15 = icmp slt i32 %13, %14
  br i1 %15, label %16, label %136

16:                                               ; preds = %12
  %17 = getelementptr inbounds [2 x [100000 x i8]], [2 x [100000 x i8]]* %6, i64 0, i64 0
  %18 = getelementptr inbounds [100000 x i8], [100000 x i8]* %17, i64 0, i64 0
  %19 = call i32 (i8*, ...) bitcast (i32 (...)* @gets to i32 (i8*, ...)*)(i8* %18)
  %20 = getelementptr inbounds [2 x [100000 x i8]], [2 x [100000 x i8]]* %6, i64 0, i64 0
  %21 = getelementptr inbounds [100000 x i8], [100000 x i8]* %20, i64 0, i64 0
  %22 = call i64 @strlen(i8* %21) #3
  %23 = trunc i64 %22 to i32
  store i32 %23, i32* %7, align 4
  %24 = getelementptr inbounds [2 x [100000 x i8]], [2 x [100000 x i8]]* %6, i64 0, i64 0
  %25 = getelementptr inbounds [100000 x i8], [100000 x i8]* %24, i64 0, i64 0
  %26 = load i8, i8* %25, align 16
  %27 = sext i8 %26 to i32
  %28 = sub nsw i32 %27, 95
  %29 = icmp eq i32 %28, 0
  br i1 %29, label %54, label %30

30:                                               ; preds = %16
  %31 = getelementptr inbounds [2 x [100000 x i8]], [2 x [100000 x i8]]* %6, i64 0, i64 0
  %32 = getelementptr inbounds [100000 x i8], [100000 x i8]* %31, i64 0, i64 0
  %33 = load i8, i8* %32, align 16
  %34 = sext i8 %33 to i32
  %35 = icmp sge i32 %34, 97
  br i1 %35, label %36, label %42

36:                                               ; preds = %30
  %37 = getelementptr inbounds [2 x [100000 x i8]], [2 x [100000 x i8]]* %6, i64 0, i64 0
  %38 = getelementptr inbounds [100000 x i8], [100000 x i8]* %37, i64 0, i64 0
  %39 = load i8, i8* %38, align 16
  %40 = sext i8 %39 to i32
  %41 = icmp sle i32 %40, 122
  br i1 %41, label %54, label %42

42:                                               ; preds = %36, %30
  %43 = getelementptr inbounds [2 x [100000 x i8]], [2 x [100000 x i8]]* %6, i64 0, i64 0
  %44 = getelementptr inbounds [100000 x i8], [100000 x i8]* %43, i64 0, i64 0
  %45 = load i8, i8* %44, align 16
  %46 = sext i8 %45 to i32
  %47 = icmp sge i32 %46, 65
  br i1 %47, label %48, label %130

48:                                               ; preds = %42
  %49 = getelementptr inbounds [2 x [100000 x i8]], [2 x [100000 x i8]]* %6, i64 0, i64 0
  %50 = getelementptr inbounds [100000 x i8], [100000 x i8]* %49, i64 0, i64 0
  %51 = load i8, i8* %50, align 16
  %52 = sext i8 %51 to i32
  %53 = icmp sle i32 %52, 90
  br i1 %53, label %54, label %130

54:                                               ; preds = %48, %36, %16
  store i32 1, i32* %5, align 4
  br label %55

55:                                               ; preds = %118, %54
  %56 = load i32, i32* %5, align 4
  %57 = load i32, i32* %7, align 4
  %58 = icmp slt i32 %56, %57
  br i1 %58, label %59, label %121

59:                                               ; preds = %55
  %60 = getelementptr inbounds [2 x [100000 x i8]], [2 x [100000 x i8]]* %6, i64 0, i64 0
  %61 = load i32, i32* %5, align 4
  %62 = sext i32 %61 to i64
  %63 = getelementptr inbounds [100000 x i8], [100000 x i8]* %60, i64 0, i64 %62
  %64 = load i8, i8* %63, align 1
  %65 = sext i8 %64 to i32
  %66 = icmp sge i32 %65, 97
  br i1 %66, label %67, label %75

67:                                               ; preds = %59
  %68 = getelementptr inbounds [2 x [100000 x i8]], [2 x [100000 x i8]]* %6, i64 0, i64 0
  %69 = load i32, i32* %5, align 4
  %70 = sext i32 %69 to i64
  %71 = getelementptr inbounds [100000 x i8], [100000 x i8]* %68, i64 0, i64 %70
  %72 = load i8, i8* %71, align 1
  %73 = sext i8 %72 to i32
  %74 = icmp sle i32 %73, 122
  br i1 %74, label %117, label %75

75:                                               ; preds = %67, %59
  %76 = getelementptr inbounds [2 x [100000 x i8]], [2 x [100000 x i8]]* %6, i64 0, i64 0
  %77 = load i32, i32* %5, align 4
  %78 = sext i32 %77 to i64
  %79 = getelementptr inbounds [100000 x i8], [100000 x i8]* %76, i64 0, i64 %78
  %80 = load i8, i8* %79, align 1
  %81 = sext i8 %80 to i32
  %82 = sub nsw i32 %81, 95
  %83 = icmp eq i32 %82, 0
  br i1 %83, label %117, label %84

84:                                               ; preds = %75
  %85 = getelementptr inbounds [2 x [100000 x i8]], [2 x [100000 x i8]]* %6, i64 0, i64 0
  %86 = load i32, i32* %5, align 4
  %87 = sext i32 %86 to i64
  %88 = getelementptr inbounds [100000 x i8], [100000 x i8]* %85, i64 0, i64 %87
  %89 = load i8, i8* %88, align 1
  %90 = sext i8 %89 to i32
  %91 = icmp sge i32 %90, 48
  br i1 %91, label %92, label %100

92:                                               ; preds = %84
  %93 = getelementptr inbounds [2 x [100000 x i8]], [2 x [100000 x i8]]* %6, i64 0, i64 0
  %94 = load i32, i32* %5, align 4
  %95 = sext i32 %94 to i64
  %96 = getelementptr inbounds [100000 x i8], [100000 x i8]* %93, i64 0, i64 %95
  %97 = load i8, i8* %96, align 1
  %98 = sext i8 %97 to i32
  %99 = icmp sle i32 %98, 57
  br i1 %99, label %117, label %100

100:                                              ; preds = %92, %84
  %101 = getelementptr inbounds [2 x [100000 x i8]], [2 x [100000 x i8]]* %6, i64 0, i64 0
  %102 = load i32, i32* %5, align 4
  %103 = sext i32 %102 to i64
  %104 = getelementptr inbounds [100000 x i8], [100000 x i8]* %101, i64 0, i64 %103
  %105 = load i8, i8* %104, align 1
  %106 = sext i8 %105 to i32
  %107 = icmp sge i32 %106, 65
  br i1 %107, label %108, label %116

108:                                              ; preds = %100
  %109 = getelementptr inbounds [2 x [100000 x i8]], [2 x [100000 x i8]]* %6, i64 0, i64 0
  %110 = load i32, i32* %5, align 4
  %111 = sext i32 %110 to i64
  %112 = getelementptr inbounds [100000 x i8], [100000 x i8]* %109, i64 0, i64 %111
  %113 = load i8, i8* %112, align 1
  %114 = sext i8 %113 to i32
  %115 = icmp sle i32 %114, 90
  br i1 %115, label %117, label %116

116:                                              ; preds = %108, %100
  br label %121

117:                                              ; preds = %108, %92, %75, %67
  br label %118

118:                                              ; preds = %117
  %119 = load i32, i32* %5, align 4
  %120 = add nsw i32 %119, 1
  store i32 %120, i32* %5, align 4
  br label %55

121:                                              ; preds = %116, %55
  %122 = load i32, i32* %5, align 4
  %123 = load i32, i32* %7, align 4
  %124 = icmp eq i32 %122, %123
  br i1 %124, label %125, label %127

125:                                              ; preds = %121
  %126 = call i32 (i8*, ...) @printf(i8* getelementptr inbounds ([3 x i8], [3 x i8]* @.str, i64 0, i64 0))
  br label %129

127:                                              ; preds = %121
  %128 = call i32 (i8*, ...) @printf(i8* getelementptr inbounds ([3 x i8], [3 x i8]* @.str.1, i64 0, i64 0))
  br label %129

129:                                              ; preds = %127, %125
  br label %132

130:                                              ; preds = %48, %42
  %131 = call i32 (i8*, ...) @printf(i8* getelementptr inbounds ([3 x i8], [3 x i8]* @.str.1, i64 0, i64 0))
  br label %132

132:                                              ; preds = %130, %129
  br label %133

133:                                              ; preds = %132
  %134 = load i32, i32* %4, align 4
  %135 = add nsw i32 %134, 1
  store i32 %135, i32* %4, align 4
  br label %12

136:                                              ; preds = %12
  %137 = call i32 @getchar()
  %138 = call i32 @getchar()
  %139 = call i32 @getchar()
  %140 = call i32 @getchar()
  %141 = load i32, i32* %1, align 4
  ret i32 %141
}

declare dso_local i32 @gets(...) #1

; Function Attrs: nounwind readonly
declare dso_local i32 @atoi(i8*) #2

; Function Attrs: nounwind readonly
declare dso_local i64 @strlen(i8*) #2

declare dso_local i32 @printf(i8*, ...) #1

declare dso_local i32 @getchar() #1


!llvm.module.flags = !{!0}
!llvm.ident = !{!1}

!0 = !{i32 1, !"wchar_size", i32 4}
!1 = !{!"clang version 10.0.0-4ubuntu1 "}
